; Function Attrs: mustprogress uwtable
define hidden void @_ZN4cvc56parser14Smt2TermParser14unescapeStringERNSt7__cxx1112basic_stringIcSt11char_traitsIcESaIcEEE(ptr nocapture noundef nonnull readonly align 8 dereferenceable(24) %this, ptr noundef nonnull align 8 dereferenceable(32) %s) local_unnamed_addr #5 align 2 personality ptr @__gxx_personality_v0 {
entry:
  %ref.tmp = alloca %"class.std::__cxx11::basic_string", align 8
  %ref.tmp12 = alloca %"class.std::allocator", align 1
  %call = tail call noundef nonnull align 8 dereferenceable(32) ptr @_ZNSt7__cxx1112basic_stringIcSt11char_traitsIcESaIcEE5eraseEmm(ptr noundef nonnull align 8 dereferenceable(32) %s, i64 noundef 0, i64 noundef 1)
  %call2 = tail call noundef nonnull align 8 dereferenceable(32) ptr @_ZNSt7__cxx1112basic_stringIcSt11char_traitsIcESaIcEEaSERKS4_(ptr noundef nonnull align 8 dereferenceable(32) %s, ptr noundef nonnull align 8 dereferenceable(32) %call)
  %call3 = tail call noundef i64 @_ZNKSt7__cxx1112basic_stringIcSt11char_traitsIcESaIcEE4sizeEv(ptr noundef nonnull align 8 dereferenceable(32) %s) #19
  %sub = add i64 %call3, -1
  %call4 = tail call noundef nonnull align 8 dereferenceable(32) ptr @_ZNSt7__cxx1112basic_stringIcSt11char_traitsIcESaIcEE5eraseEmm(ptr noundef nonnull align 8 dereferenceable(32) %s, i64 noundef %sub, i64 noundef 1)
  %call5 = tail call noundef nonnull align 8 dereferenceable(32) ptr @_ZNSt7__cxx1112basic_stringIcSt11char_traitsIcESaIcEEaSERKS4_(ptr noundef nonnull align 8 dereferenceable(32) %s, ptr noundef nonnull align 8 dereferenceable(32) %call4)
  %call6 = tail call noundef i64 @_ZNKSt7__cxx1112basic_stringIcSt11char_traitsIcESaIcEE4sizeEv(ptr noundef nonnull align 8 dereferenceable(32) %s) #19
  %cmp24.not = icmp eq i64 %call6, 0
  br i1 %cmp24.not, label %for.cond15.preheader, label %for.body.lr.ph

for.body.lr.ph:                                   ; preds = %entry
  %d_lex = getelementptr inbounds i8, ptr %this, i64 8
  br label %for.body

for.cond15.preheader:                             ; preds = %for.inc, %entry
  %call1626 = call noundef i64 @_ZNKSt7__cxx1112basic_stringIcSt11char_traitsIcESaIcEE4sizeEv(ptr noundef nonnull align 8 dereferenceable(32) %s) #19
  %cmp1727.not = icmp eq i64 %call1626, 0
  br i1 %cmp1727.not, label %for.end30, label %for.body18

for.body:                                         ; preds = %for.body.lr.ph, %for.inc
  %i.025 = phi i64 [ 0, %for.body.lr.ph ], [ %inc, %for.inc ]
  %call7 = call noundef nonnull align 1 dereferenceable(1) ptr @_ZNSt7__cxx1112basic_stringIcSt11char_traitsIcESaIcEEixEm(ptr noundef nonnull align 8 dereferenceable(32) %s, i64 noundef %i.025)
  %0 = load i8, ptr %call7, align 1
  %cmp8 = icmp slt i8 %0, 0
  br i1 %cmp8, label %land.lhs.true, label %for.inc

land.lhs.true:                                    ; preds = %for.body
  %call9 = call noundef nonnull align 1 dereferenceable(1) ptr @_ZNSt7__cxx1112basic_stringIcSt11char_traitsIcESaIcEEixEm(ptr noundef nonnull align 8 dereferenceable(32) %s, i64 noundef %i.025)
  %1 = load i8, ptr %call9, align 1
  %conv10 = sext i8 %1 to i32
  %call11 = call i32 @isprint(i32 noundef %conv10) #24
  %tobool.not = icmp eq i32 %call11, 0
  br i1 %tobool.not, label %if.then, label %for.inc

if.then:                                          ; preds = %land.lhs.true
  %2 = load ptr, ptr %d_lex, align 8
  call void @_ZNSaIcEC1Ev(ptr noundef nonnull align 1 dereferenceable(1) %ref.tmp12) #19
  %call.i23 = invoke noundef ptr @_ZNSt7__cxx1112basic_stringIcSt11char_traitsIcESaIcEE13_M_local_dataEv(ptr noundef nonnull align 8 dereferenceable(32) %ref.tmp)
          to label %call.i.noexc unwind label %lpad

call.i.noexc:                                     ; preds = %if.then
  invoke void @_ZNSt7__cxx1112basic_stringIcSt11char_traitsIcESaIcEE12_Alloc_hiderC1EPcRKS3_(ptr noundef nonnull align 8 dereferenceable(8) %ref.tmp, ptr noundef %call.i23, ptr noundef nonnull align 1 dereferenceable(1) %ref.tmp12)
          to label %.noexc unwind label %lpad

.noexc:                                           ; preds = %call.i.noexc
  invoke void @_ZNSt7__cxx1112basic_stringIcSt11char_traitsIcESaIcEE12_M_constructIPKcEEvT_S8_St20forward_iterator_tag(ptr noundef nonnull align 8 dereferenceable(32) %ref.tmp, ptr noundef nonnull @.str.46, ptr noundef nonnull getelementptr inbounds ([102 x i8], ptr @.str.46, i64 0, i64 101))
          to label %invoke.cont unwind label %lpad.i

lpad.i:                                           ; preds = %.noexc
  %3 = landingpad { ptr, i32 }
          cleanup
  call void @_ZNSaIcED2Ev(ptr noundef nonnull align 1 dereferenceable(1) %ref.tmp) #19
  br label %ehcleanup

invoke.cont:                                      ; preds = %.noexc
  invoke void @_ZN4cvc56parser5Lexer10parseErrorERKNSt7__cxx1112basic_stringIcSt11char_traitsIcESaIcEEEb(ptr noundef nonnull align 8 dereferenceable(32892) %2, ptr noundef nonnull align 8 dereferenceable(32) %ref.tmp, i1 noundef zeroext false)
          to label %invoke.cont14 unwind label %lpad13

invoke.cont14:                                    ; preds = %invoke.cont
  call void @_ZNSt7__cxx1112basic_stringIcSt11char_traitsIcESaIcEED1Ev(ptr noundef nonnull align 8 dereferenceable(32) %ref.tmp) #19
  call void @_ZNSaIcED1Ev(ptr noundef nonnull align 1 dereferenceable(1) %ref.tmp12) #19
  br label %for.inc

lpad:                                             ; preds = %call.i.noexc, %if.then
  %4 = landingpad { ptr, i32 }
          cleanup
  br label %ehcleanup

lpad13:                                           ; preds = %invoke.cont
  %5 = landingpad { ptr, i32 }
          cleanup
  call void @_ZNSt7__cxx1112basic_stringIcSt11char_traitsIcESaIcEED1Ev(ptr noundef nonnull align 8 dereferenceable(32) %ref.tmp) #19
  br label %ehcleanup

ehcleanup:                                        ; preds = %lpad, %lpad.i, %lpad13
  %.pn = phi { ptr, i32 } [ %5, %lpad13 ], [ %4, %lpad ], [ %3, %lpad.i ]
  call void @_ZNSaIcED1Ev(ptr noundef nonnull align 1 dereferenceable(1) %ref.tmp12) #19
  resume { ptr, i32 } %.pn

for.inc:                                          ; preds = %for.body, %land.lhs.true, %invoke.cont14
  %inc = add nuw i64 %i.025, 1
  %exitcond.not = icmp eq i64 %inc, %call6
  br i1 %exitcond.not, label %for.cond15.preheader, label %for.body, !llvm.loop !15

for.body18:                                       ; preds = %for.cond15.preheader, %for.body18
  %src.029 = phi i64 [ %inc28, %for.body18 ], [ 0, %for.cond15.preheader ]
  %dst.028 = phi i64 [ %inc29, %for.body18 ], [ 0, %for.cond15.preheader ]
  %call19 = call noundef nonnull align 1 dereferenceable(1) ptr @_ZNSt7__cxx1112basic_stringIcSt11char_traitsIcESaIcEEixEm(ptr noundef nonnull align 8 dereferenceable(32) %s, i64 noundef %src.029)
  %6 = load i8, ptr %call19, align 1
  %call20 = call noundef nonnull align 1 dereferenceable(1) ptr @_ZNSt7__cxx1112basic_stringIcSt11char_traitsIcESaIcEEixEm(ptr noundef nonnull align 8 dereferenceable(32) %s, i64 noundef %dst.028)
  store i8 %6, ptr %call20, align 1
  %call21 = call noundef nonnull align 1 dereferenceable(1) ptr @_ZNSt7__cxx1112basic_stringIcSt11char_traitsIcESaIcEEixEm(ptr noundef nonnull align 8 dereferenceable(32) %s, i64 noundef %src.029)
  %7 = load i8, ptr %call21, align 1
  %cmp23 = icmp eq i8 %7, 34
  %inc25 = zext i1 %cmp23 to i64
  %spec.select = add nuw i64 %src.029, 1
  %inc28 = add i64 %spec.select, %inc25
  %inc29 = add i64 %dst.028, 1
  %call16 = call noundef i64 @_ZNKSt7__cxx1112basic_stringIcSt11char_traitsIcESaIcEE4sizeEv(ptr noundef nonnull align 8 dereferenceable(32) %s) #19
  %cmp17 = icmp ult i64 %inc28, %call16
  br i1 %cmp17, label %for.body18, label %for.end30, !llvm.loop !16

for.end30:                                        ; preds = %for.body18, %for.cond15.preheader
  %dst.0.lcssa = phi i64 [ 0, %for.cond15.preheader ], [ %inc29, %for.body18 ]
  %call31 = call noundef nonnull align 8 dereferenceable(32) ptr @_ZNSt7__cxx1112basic_stringIcSt11char_traitsIcESaIcEE5eraseEmm(ptr noundef nonnull align 8 dereferenceable(32) %s, i64 noundef %dst.0.lcssa, i64 noundef -1)
  ret void
}